; Function Attrs: inlinehint nounwind uwtable
define internal fastcc i64 @Abc_Clock() unnamed_addr #11 {
  %1 = alloca %struct.timespec, align 8
  call void @llvm.lifetime.start.p0(i64 16, ptr nonnull %1) #32
  %2 = call i32 @clock_gettime(i32 noundef 1, ptr noundef nonnull %1) #32
  %3 = icmp slt i32 %2, 0
  br i1 %3, label %11, label %4

4:                                                ; preds = %0
  %5 = load i64, ptr %1, align 8, !tbaa !65
  %6 = mul nsw i64 %5, 1000000
  %7 = getelementptr inbounds nuw i8, ptr %1, i64 8
  %8 = load i64, ptr %7, align 8, !tbaa !67
  %9 = sdiv i64 %8, 1000
  %10 = add nsw i64 %9, %6
  br label %11

11:                                               ; preds = %0, %4
  %.0 = phi i64 [ %10, %4 ], [ -1, %0 ]
  call void @llvm.lifetime.end.p0(i64 16, ptr nonnull %1) #32
  ret i64 %.0
}